target datalayout = "e-m:e-p270:32:32-p271:32:32-p272:64:64-i64:64-i128:128-f80:128-n8:16:32:64-S128"
target triple = "x86_64-pc-linux-gnu"

%union.pthread_cond_t = type { %struct.__pthread_cond_s }
%struct.__pthread_cond_s = type { %union.__atomic_wide_counter, %union.__atomic_wide_counter, [2 x i32], [2 x i32], i32, i32, [2 x i32] }
%union.__atomic_wide_counter = type { i64 }
%union.pthread_mutex_t = type { %struct.__pthread_mutex_s }
%struct.__pthread_mutex_s = type { i32, i32, i32, i32, i32, i16, i16, %struct.__pthread_internal_list }
%struct.__pthread_internal_list = type { ptr, ptr }
%struct.onas_event_queue = type { ptr, ptr, i64 }
%struct.onas_event_queue_node = type { ptr, ptr, ptr }

@onas_scan_queue_empty_cond = dso_local global %union.pthread_cond_t zeroinitializer, align 8
@onas_queue_lock = internal global %union.pthread_mutex_t zeroinitializer, align 8
@g_onas_event_queue_tail = internal global ptr null, align 8
@g_onas_event_queue = internal global %struct.onas_event_queue zeroinitializer, align 8

; Function Attrs: nounwind uwtable
define internal i32 @onas_new_event_queue_node(ptr noundef %0) #0 {
  %2 = alloca i32, align 4
  %3 = alloca ptr, align 8
  %4 = alloca %struct.onas_event_queue_node, align 8
  store ptr %0, ptr %3, align 8
  %5 = call noalias ptr @malloc(i64 noundef 24) #11
  %6 = load ptr, ptr %3, align 8
  store ptr %5, ptr %6, align 8
  %7 = load ptr, ptr %3, align 8
  %8 = load ptr, ptr %7, align 8
  %9 = icmp eq ptr null, %8
  br i1 %9, label %10, label %11

10:                                               ; preds = %1
  store i32 20, ptr %2, align 4
  br label %14

11:                                               ; preds = %1
  %12 = load ptr, ptr %3, align 8
  %13 = load ptr, ptr %12, align 8
  call void @llvm.memset.p0.i64(ptr align 8 %4, i8 0, i64 24, i1 false)
  call void @llvm.memcpy.p0.p0.i64(ptr align 8 %13, ptr align 8 %4, i64 24, i1 false)
  store i32 0, ptr %2, align 4
  br label %14

14:                                               ; preds = %11, %10
  %15 = load i32, ptr %2, align 4
  ret i32 %15
}

; Function Attrs: nounwind uwtable
define dso_local i32 @onas_queue_event(ptr noundef %0) #0 {
  %2 = alloca i32, align 4
  %3 = alloca ptr, align 8
  %4 = alloca ptr, align 8
  store ptr %0, ptr %3, align 8
  store ptr null, ptr %4, align 8
  %5 = call i32 @onas_new_event_queue_node(ptr noundef %4)
  %6 = icmp eq i32 20, %5
  br i1 %6, label %7, label %8

7:                                                ; preds = %1
  store i32 20, ptr %2, align 4
  br label %33

8:                                                ; preds = %1
  %9 = call i32 @pthread_mutex_lock(ptr noundef @onas_queue_lock) #8
  %10 = load ptr, ptr @g_onas_event_queue_tail, align 8
  %11 = load ptr, ptr %4, align 8
  %12 = getelementptr inbounds %struct.onas_event_queue_node, ptr %11, i32 0, i32 0
  store ptr %10, ptr %12, align 8
  %13 = load ptr, ptr @g_onas_event_queue_tail, align 8
  %14 = getelementptr inbounds %struct.onas_event_queue_node, ptr %13, i32 0, i32 1
  %15 = load ptr, ptr %14, align 8
  %16 = load ptr, ptr %4, align 8
  %17 = getelementptr inbounds %struct.onas_event_queue_node, ptr %16, i32 0, i32 1
  store ptr %15, ptr %17, align 8
  %18 = load ptr, ptr %4, align 8
  %19 = load ptr, ptr @g_onas_event_queue_tail, align 8
  %20 = getelementptr inbounds %struct.onas_event_queue_node, ptr %19, i32 0, i32 1
  %21 = load ptr, ptr %20, align 8
  %22 = getelementptr inbounds %struct.onas_event_queue_node, ptr %21, i32 0, i32 0
  store ptr %18, ptr %22, align 8
  %23 = load ptr, ptr %4, align 8
  %24 = load ptr, ptr @g_onas_event_queue_tail, align 8
  %25 = getelementptr inbounds %struct.onas_event_queue_node, ptr %24, i32 0, i32 1
  store ptr %23, ptr %25, align 8
  %26 = load ptr, ptr %3, align 8
  %27 = load ptr, ptr %4, align 8
  %28 = getelementptr inbounds %struct.onas_event_queue_node, ptr %27, i32 0, i32 2
  store ptr %26, ptr %28, align 8
  %29 = load i64, ptr getelementptr inbounds (%struct.onas_event_queue, ptr @g_onas_event_queue, i32 0, i32 2), align 8
  %30 = add i64 %29, 1
  store i64 %30, ptr getelementptr inbounds (%struct.onas_event_queue, ptr @g_onas_event_queue, i32 0, i32 2), align 8
  %31 = call i32 @pthread_cond_signal(ptr noundef @onas_scan_queue_empty_cond) #8
  %32 = call i32 @pthread_mutex_unlock(ptr noundef @onas_queue_lock) #8
  store i32 0, ptr %2, align 4
  br label %33

33:                                               ; preds = %8, %7
  %34 = load i32, ptr %2, align 4
  ret i32 %34
}