; Function Attrs: nounwind uwtable
define dso_local noundef i32 @onas_queue_event(ptr noundef %0) local_unnamed_addr #4 {
  %calloc.i = tail call dereferenceable_or_null(24) ptr @calloc(i64 1, i64 24)
  %2 = icmp eq ptr %calloc.i, null
  br i1 %2, label %16, label %3

3:                                                ; preds = %1
  %4 = tail call i32 @pthread_mutex_lock(ptr noundef nonnull @onas_queue_lock) #9
  %5 = load ptr, ptr @g_onas_event_queue_tail, align 8
  store ptr %5, ptr %calloc.i, align 8
  %6 = getelementptr inbounds i8, ptr %5, i64 8
  %7 = load ptr, ptr %6, align 8
  %8 = getelementptr inbounds i8, ptr %calloc.i, i64 8
  store ptr %7, ptr %8, align 8
  store ptr %calloc.i, ptr %7, align 8
  %9 = load ptr, ptr @g_onas_event_queue_tail, align 8
  %10 = getelementptr inbounds i8, ptr %9, i64 8
  store ptr %calloc.i, ptr %10, align 8
  %11 = getelementptr inbounds i8, ptr %calloc.i, i64 16
  store ptr %0, ptr %11, align 8
  %12 = load i64, ptr @g_onas_event_queue.2, align 8
  %13 = add i64 %12, 1
  store i64 %13, ptr @g_onas_event_queue.2, align 8
  %14 = tail call i32 @pthread_cond_signal(ptr noundef nonnull @onas_scan_queue_empty_cond) #9
  %15 = tail call i32 @pthread_mutex_unlock(ptr noundef nonnull @onas_queue_lock) #9
  br label %16

16:                                               ; preds = %1, %3
  %.0 = phi i32 [ 0, %3 ], [ 20, %1 ]
  ret i32 %.0
}